target datalayout = "e-m:e-p270:32:32-p271:32:32-p272:64:64-i64:64-i128:128-f80:128-n8:16:32:64-S128"
target triple = "x86_64-pc-linux-gnu"

%struct.lock_file = type { ptr }
%struct.anon.0 = type { ptr, ptr, ptr }
%struct.repository = type { ptr, ptr, ptr, ptr, ptr, %struct.strmap, %struct.strmap, %struct.repo_path_cache, ptr, ptr, ptr, ptr, %struct.repo_settings, ptr, ptr, ptr, ptr, ptr, ptr, i32, i32, i32, ptr, ptr, i32, i32, i8 }
%struct.strmap = type { %struct.hashmap, ptr, i8 }
%struct.hashmap = type { ptr, ptr, ptr, i32, i32, i32, i32, i8 }
%struct.repo_path_cache = type { ptr, ptr, ptr, ptr, ptr, ptr, ptr }
%struct.repo_settings = type { i32, i32, i32, i32, i32, i32, i32, i32, i32, i32, i32, i32, ptr, i32, i32, i32, i32, i32, i32, i32, i64, i64, i64 }
%struct.raw_object_store = type { ptr, ptr, ptr, i32, ptr, ptr, i8, %union.pthread_mutex_t, ptr, i8, ptr, ptr, %struct.list_head, %struct.anon, %struct.hashmap, i64, i8 }
%union.pthread_mutex_t = type { %struct.__pthread_mutex_s }
%struct.__pthread_mutex_s = type { i32, i32, i32, i32, i32, i16, i16, %struct.__pthread_internal_list }
%struct.__pthread_internal_list = type { ptr, ptr }
%struct.list_head = type { ptr, ptr }
%struct.anon = type { ptr, i32 }
%struct.maintenance_start_opts = type { i32 }
%struct.object_directory = type { ptr, [8 x i32], ptr, ptr, i32, i32, ptr }

@the_repository = external global ptr, align 8
@.str.75 = private unnamed_addr constant [1 x i8] zeroinitializer, align 1
@git_gettext_enabled = external global i32, align 4
@.str.261 = private unnamed_addr constant [12 x i8] c"%s/schedule\00", align 1
@.str.263 = private unnamed_addr constant [57 x i8] c"cannot acquire lock for scheduled background maintenance\00", align 1

; Function Attrs: inlinehint nounwind uwtable
define internal i32 @hold_lock_file_for_update_timeout(ptr noundef %0, ptr noundef %1, i32 noundef %2, i64 noundef %3) #6 {
  %5 = alloca ptr, align 8
  %6 = alloca ptr, align 8
  %7 = alloca i32, align 4
  %8 = alloca i64, align 8
  store ptr %0, ptr %5, align 8, !tbaa !111
  store ptr %1, ptr %6, align 8, !tbaa !11
  store i32 %2, ptr %7, align 4, !tbaa !4
  store i64 %3, ptr %8, align 8, !tbaa !92
  %9 = load ptr, ptr %5, align 8, !tbaa !111
  %10 = load ptr, ptr %6, align 8, !tbaa !11
  %11 = load i32, ptr %7, align 4, !tbaa !4
  %12 = load i64, ptr %8, align 8, !tbaa !92
  %13 = call i32 @hold_lock_file_for_update_timeout_mode(ptr noundef %9, ptr noundef %10, i32 noundef %11, i64 noundef %12, i32 noundef 438)
  ret i32 %13
}

; Function Attrs: inlinehint nounwind uwtable
define internal i32 @rollback_lock_file(ptr noundef %0) #6 {
  %2 = alloca ptr, align 8
  store ptr %0, ptr %2, align 8, !tbaa !111
  %3 = load ptr, ptr %2, align 8, !tbaa !111
  %4 = getelementptr inbounds nuw %struct.lock_file, ptr %3, i32 0, i32 0
  %5 = call i32 @delete_tempfile(ptr noundef %4)
  ret i32 %5
}

; Function Attrs: inlinehint nounwind uwtable
define internal i32 @get_lock_file_fd(ptr noundef %0) #6 {
  %2 = alloca ptr, align 8
  store ptr %0, ptr %2, align 8, !tbaa !111
  %3 = load ptr, ptr %2, align 8, !tbaa !111
  %4 = getelementptr inbounds nuw %struct.lock_file, ptr %3, i32 0, i32 0
  %5 = load ptr, ptr %4, align 8, !tbaa !115
  %6 = call i32 @get_tempfile_fd(ptr noundef %5)
  ret i32 %6
}

; Function Attrs: inlinehint nounwind uwtable
define internal i32 @const_error() #6 {
  ret i32 -1
}

; Function Attrs: inlinehint nounwind uwtable
define internal ptr @_(ptr noundef %0) #6 {
  %2 = alloca ptr, align 8
  %3 = alloca ptr, align 8
  store ptr %0, ptr %3, align 8, !tbaa !11
  %4 = load ptr, ptr %3, align 8, !tbaa !11
  %5 = load i8, ptr %4, align 1, !tbaa !93
  %6 = icmp ne i8 %5, 0
  br i1 %6, label %8, label %7

7:                                                ; preds = %1
  store ptr @.str.75, ptr %2, align 8
  br label %16

8:                                                ; preds = %1
  %9 = load i32, ptr @git_gettext_enabled, align 4, !tbaa !4
  %10 = icmp ne i32 %9, 0
  br i1 %10, label %13, label %11

11:                                               ; preds = %8
  %12 = load ptr, ptr %3, align 8, !tbaa !11
  store ptr %12, ptr %2, align 8
  br label %16

13:                                               ; preds = %8
  %14 = load ptr, ptr %3, align 8, !tbaa !11
  %15 = call ptr @dcgettext(ptr noundef null, ptr noundef %14, i32 noundef 5) #11
  store ptr %15, ptr %2, align 8
  br label %16

16:                                               ; preds = %13, %11, %7
  %17 = load ptr, ptr %2, align 8
  ret ptr %17
}

; Function Attrs: inlinehint nounwind uwtable
define internal i32 @hold_lock_file_for_update(ptr noundef %0, ptr noundef %1, i32 noundef %2) #6 {
  %4 = alloca ptr, align 8
  %5 = alloca ptr, align 8
  %6 = alloca i32, align 4
  store ptr %0, ptr %4, align 8, !tbaa !111
  store ptr %1, ptr %5, align 8, !tbaa !11
  store i32 %2, ptr %6, align 4, !tbaa !4
  %7 = load ptr, ptr %4, align 8, !tbaa !111
  %8 = load ptr, ptr %5, align 8, !tbaa !11
  %9 = load i32, ptr %6, align 4, !tbaa !4
  %10 = call i32 @hold_lock_file_for_update_timeout(ptr noundef %7, ptr noundef %8, i32 noundef %9, i64 noundef 0)
  ret i32 %10
}

; Function Attrs: nounwind uwtable
define internal i32 @update_background_schedule(ptr noundef %0, i32 noundef %1) #0 {
  %3 = alloca i32, align 4
  %4 = alloca ptr, align 8
  %5 = alloca i32, align 4
  %6 = alloca i32, align 4
  %7 = alloca i32, align 4
  %8 = alloca %struct.lock_file, align 8
  %9 = alloca ptr, align 8
  %10 = alloca i32, align 4
  store ptr %0, ptr %4, align 8, !tbaa !211
  store i32 %1, ptr %5, align 4, !tbaa !4
  call void @llvm.lifetime.start.p0(i64 4, ptr %6) #11
  call void @llvm.lifetime.start.p0(i64 4, ptr %7) #11
  store i32 0, ptr %7, align 4, !tbaa !4
  call void @llvm.lifetime.start.p0(i64 8, ptr %8) #11
  call void @llvm.lifetime.start.p0(i64 8, ptr %9) #11
  %11 = load ptr, ptr @the_repository, align 8, !tbaa !13
  %12 = getelementptr inbounds nuw %struct.repository, ptr %11, i32 0, i32 2
  %13 = load ptr, ptr %12, align 8, !tbaa !58
  %14 = getelementptr inbounds nuw %struct.raw_object_store, ptr %13, i32 0, i32 0
  %15 = load ptr, ptr %14, align 8, !tbaa !77
  %16 = getelementptr inbounds nuw %struct.object_directory, ptr %15, i32 0, i32 6
  %17 = load ptr, ptr %16, align 8, !tbaa !157
  %18 = call ptr (ptr, ...) @xstrfmt(ptr noundef @.str.261, ptr noundef %17)
  store ptr %18, ptr %9, align 8, !tbaa !11
  %19 = load ptr, ptr %9, align 8, !tbaa !11
  %20 = call i32 @hold_lock_file_for_update(ptr noundef %8, ptr noundef %19, i32 noundef 2)
  %21 = icmp slt i32 %20, 0
  br i1 %21, label %22, label %41

22:                                               ; preds = %2
  %23 = call ptr @__errno_location() #14
  %24 = load i32, ptr %23, align 4, !tbaa !4
  %25 = icmp eq i32 %24, 17
  br i1 %25, label %26, label %35

26:                                               ; preds = %22
  %27 = call ptr @_(ptr noundef @.str.262)
  %28 = load ptr, ptr %9, align 8, !tbaa !11
  %29 = call ptr @absolute_path(ptr noundef %28)
  %30 = call ptr @__errno_location() #14
  %31 = load i32, ptr %30, align 4, !tbaa !4
  %32 = call ptr @strerror(i32 noundef %31) #11
  %33 = call i32 (ptr, ...) @error(ptr noundef %27, ptr noundef %29, ptr noundef %32)
  %34 = call i32 @const_error()
  br label %39

35:                                               ; preds = %22
  %36 = call ptr @_(ptr noundef @.str.263)
  %37 = call i32 (ptr, ...) @error_errno(ptr noundef %36)
  %38 = call i32 @const_error()
  br label %39

39:                                               ; preds = %35, %26
  %40 = load ptr, ptr %9, align 8, !tbaa !11
  call void @free(ptr noundef %40) #11
  store i32 -1, ptr %3, align 4
  store i32 1, ptr %10, align 4
  br label %93

41:                                               ; preds = %2
  store i32 1, ptr %6, align 4, !tbaa !4
  br label %42

42:                                               ; preds = %73, %41
  %43 = load i32, ptr %6, align 4, !tbaa !4
  %44 = zext i32 %43 to i64
  %45 = icmp ult i64 %44, 5
  br i1 %45, label %46, label %76

46:                                               ; preds = %42
  %47 = load i32, ptr %5, align 4, !tbaa !4
  %48 = icmp ne i32 %47, 0
  br i1 %48, label %49, label %56

49:                                               ; preds = %46
  %50 = load ptr, ptr %4, align 8, !tbaa !211
  %51 = getelementptr inbounds nuw %struct.maintenance_start_opts, ptr %50, i32 0, i32 0
  %52 = load i32, ptr %51, align 4, !tbaa !135
  %53 = load i32, ptr %6, align 4, !tbaa !4
  %54 = icmp eq i32 %52, %53
  br i1 %54, label %55, label %56

55:                                               ; preds = %49
  br label %73

56:                                               ; preds = %49, %46
  %57 = load i32, ptr %6, align 4, !tbaa !4
  %58 = zext i32 %57 to i64
  %59 = getelementptr inbounds nuw [5 x %struct.anon.0], ptr @scheduler_fn, i64 0, i64 %58
  %60 = getelementptr inbounds nuw %struct.anon.0, ptr %59, i32 0, i32 1
  %61 = load ptr, ptr %60, align 8, !tbaa !208
  %62 = call i32 %61()
  %63 = icmp ne i32 %62, 0
  br i1 %63, label %65, label %64

64:                                               ; preds = %56
  br label %73

65:                                               ; preds = %56
  %66 = load i32, ptr %6, align 4, !tbaa !4
  %67 = zext i32 %66 to i64
  %68 = getelementptr inbounds nuw [5 x %struct.anon.0], ptr @scheduler_fn, i64 0, i64 %67
  %69 = getelementptr inbounds nuw %struct.anon.0, ptr %68, i32 0, i32 2
  %70 = load ptr, ptr %69, align 8, !tbaa !213
  %71 = call i32 @get_lock_file_fd(ptr noundef %8)
  %72 = call i32 %70(i32 noundef 0, i32 noundef %71)
  br label %73

73:                                               ; preds = %65, %64, %55
  %74 = load i32, ptr %6, align 4, !tbaa !4
  %75 = add i32 %74, 1
  store i32 %75, ptr %6, align 4, !tbaa !4
  br label %42, !llvm.loop !214

76:                                               ; preds = %42
  %77 = load i32, ptr %5, align 4, !tbaa !4
  %78 = icmp ne i32 %77, 0
  br i1 %78, label %79, label %89

79:                                               ; preds = %76
  %80 = load ptr, ptr %4, align 8, !tbaa !211
  %81 = getelementptr inbounds nuw %struct.maintenance_start_opts, ptr %80, i32 0, i32 0
  %82 = load i32, ptr %81, align 4, !tbaa !135
  %83 = sext i32 %82 to i64
  %84 = getelementptr inbounds [5 x %struct.anon.0], ptr @scheduler_fn, i64 0, i64 %83
  %85 = getelementptr inbounds nuw %struct.anon.0, ptr %84, i32 0, i32 2
  %86 = load ptr, ptr %85, align 8, !tbaa !213
  %87 = call i32 @get_lock_file_fd(ptr noundef %8)
  %88 = call i32 %86(i32 noundef 1, i32 noundef %87)
  store i32 %88, ptr %7, align 4, !tbaa !4
  br label %89

89:                                               ; preds = %79, %76
  %90 = call i32 @rollback_lock_file(ptr noundef %8)
  %91 = load ptr, ptr %9, align 8, !tbaa !11
  call void @free(ptr noundef %91) #11
  %92 = load i32, ptr %7, align 4, !tbaa !4
  store i32 %92, ptr %3, align 4
  store i32 1, ptr %10, align 4
  br label %93

93:                                               ; preds = %89, %39
  call void @llvm.lifetime.end.p0(i64 8, ptr %9) #11
  call void @llvm.lifetime.end.p0(i64 8, ptr %8) #11
  call void @llvm.lifetime.end.p0(i64 4, ptr %7) #11
  call void @llvm.lifetime.end.p0(i64 4, ptr %6) #11
  %94 = load i32, ptr %3, align 4
  ret i32 %94
}