; Function Attrs: nounwind uwtable
define internal fastcc i32 @update_background_schedule(ptr noundef readonly captures(none) %0, i32 noundef range(i32 0, 2) %1) unnamed_addr #0 {
  %3 = alloca %struct.lock_file, align 8
  call void @llvm.lifetime.start.p0(i64 8, ptr nonnull %3) #21
  %4 = load ptr, ptr @the_repository, align 8, !tbaa !42
  %5 = getelementptr inbounds nuw i8, ptr %4, i64 16
  %6 = load ptr, ptr %5, align 8, !tbaa !65
  %7 = load ptr, ptr %6, align 8, !tbaa !88
  %8 = getelementptr inbounds nuw i8, ptr %7, i64 64
  %9 = load ptr, ptr %8, align 8, !tbaa !123
  %10 = tail call ptr (ptr, ...) @xstrfmt(ptr noundef nonnull @.str.261, ptr noundef %9) #21
  %11 = call i32 @hold_lock_file_for_update_timeout_mode(ptr noundef nonnull %3, ptr noundef %10, i32 noundef range(i32 1, 3) 2, i64 noundef 0, i32 noundef 438) #21
  %12 = icmp slt i32 %11, 0
  br i1 %12, label %23, label %.preheader

.preheader:                                       ; preds = %2
  %.not17 = icmp eq i32 %1, 0
  br i1 %.not17, label %.preheader.split.us, label %.preheader.split

.preheader.split.us:                              ; preds = %.preheader, %22
  %indvars.iv26 = phi i64 [ %indvars.iv.next27, %22 ], [ 1, %.preheader ]
  %13 = getelementptr inbounds nuw [5 x %struct.anon.0], ptr @scheduler_fn, i64 0, i64 %indvars.iv26
  %14 = getelementptr inbounds nuw i8, ptr %13, i64 8
  %15 = load ptr, ptr %14, align 8, !tbaa !133
  %16 = call i32 %15() #21
  %.not18.us = icmp eq i32 %16, 0
  br i1 %.not18.us, label %22, label %17

17:                                               ; preds = %.preheader.split.us
  %18 = getelementptr inbounds nuw i8, ptr %13, i64 16
  %19 = load ptr, ptr %18, align 8, !tbaa !169
  %.val19.us = load ptr, ptr %3, align 8, !tbaa !55
  %20 = call i32 @get_tempfile_fd(ptr noundef %.val19.us) #21
  %21 = call i32 %19(i32 noundef 0, i32 noundef %20) #21
  br label %22

22:                                               ; preds = %17, %.preheader.split.us
  %indvars.iv.next27 = add nuw nsw i64 %indvars.iv26, 1
  %exitcond29.not = icmp eq i64 %indvars.iv.next27, 5
  br i1 %exitcond29.not, label %.split.us, label %.preheader.split.us, !llvm.loop !170

23:                                               ; preds = %2
  %24 = tail call ptr @__errno_location() #24
  %25 = load i32, ptr %24, align 4, !tbaa !4
  %26 = icmp eq i32 %25, 17
  %27 = load i32, ptr @git_gettext_enabled, align 4, !tbaa !4
  %.not4.i = icmp eq i32 %27, 0
  br i1 %26, label %28, label %35

28:                                               ; preds = %23
  br i1 %.not4.i, label %_.exit, label %29

29:                                               ; preds = %28
  %30 = call ptr @dcgettext(ptr noundef null, ptr noundef nonnull @.str.262, i32 noundef 5) #21
  br label %_.exit

_.exit:                                           ; preds = %28, %29
  %.0.i = phi ptr [ %30, %29 ], [ @.str.262, %28 ]
  %31 = call ptr @absolute_path(ptr noundef %10) #21
  %32 = load i32, ptr %24, align 4, !tbaa !4
  %33 = call ptr @strerror(i32 noundef %32) #21
  %34 = call i32 (ptr, ...) @error(ptr noundef %.0.i, ptr noundef %31, ptr noundef %33) #21
  br label %62

35:                                               ; preds = %23
  br i1 %.not4.i, label %_.exit22, label %36

36:                                               ; preds = %35
  %37 = call ptr @dcgettext(ptr noundef null, ptr noundef nonnull @.str.263, i32 noundef 5) #21
  br label %_.exit22

_.exit22:                                         ; preds = %35, %36
  %.0.i21 = phi ptr [ %37, %36 ], [ @.str.263, %35 ]
  %38 = call i32 (ptr, ...) @error_errno(ptr noundef %.0.i21) #21
  br label %62

.preheader.split:                                 ; preds = %.preheader, %52
  %indvars.iv = phi i64 [ %indvars.iv.next, %52 ], [ 1, %.preheader ]
  %39 = load i32, ptr %0, align 4, !tbaa !131
  %40 = zext i32 %39 to i64
  %41 = icmp eq i64 %indvars.iv, %40
  br i1 %41, label %52, label %42

42:                                               ; preds = %.preheader.split
  %43 = getelementptr inbounds nuw [5 x %struct.anon.0], ptr @scheduler_fn, i64 0, i64 %indvars.iv
  %44 = getelementptr inbounds nuw i8, ptr %43, i64 8
  %45 = load ptr, ptr %44, align 8, !tbaa !133
  %46 = call i32 %45() #21
  %.not18 = icmp eq i32 %46, 0
  br i1 %.not18, label %52, label %47

47:                                               ; preds = %42
  %48 = getelementptr inbounds nuw i8, ptr %43, i64 16
  %49 = load ptr, ptr %48, align 8, !tbaa !169
  %.val19 = load ptr, ptr %3, align 8, !tbaa !55
  %50 = call i32 @get_tempfile_fd(ptr noundef %.val19) #21
  %51 = call i32 %49(i32 noundef 0, i32 noundef %50) #21
  br label %52

52:                                               ; preds = %42, %.preheader.split, %47
  %indvars.iv.next = add nuw nsw i64 %indvars.iv, 1
  %exitcond.not = icmp eq i64 %indvars.iv.next, 5
  br i1 %exitcond.not, label %.split.us, label %.preheader.split, !llvm.loop !170

.split.us:                                        ; preds = %52, %22
  br i1 %.not17, label %60, label %53

53:                                               ; preds = %.split.us
  %54 = load i32, ptr %0, align 4, !tbaa !131
  %55 = sext i32 %54 to i64
  %56 = getelementptr inbounds [5 x %struct.anon.0], ptr @scheduler_fn, i64 0, i64 %55, i32 2
  %57 = load ptr, ptr %56, align 8, !tbaa !169
  %.val = load ptr, ptr %3, align 8, !tbaa !55
  %58 = call i32 @get_tempfile_fd(ptr noundef %.val) #21
  %59 = call i32 %57(i32 noundef 1, i32 noundef %58) #21
  br label %60

60:                                               ; preds = %53, %.split.us
  %.014 = phi i32 [ %59, %53 ], [ 0, %.split.us ]
  %61 = call i32 @delete_tempfile(ptr noundef nonnull %3) #21
  br label %62

62:                                               ; preds = %_.exit, %_.exit22, %60
  %.0 = phi i32 [ %.014, %60 ], [ -1, %_.exit22 ], [ -1, %_.exit ]
  call void @free(ptr noundef %10) #21
  call void @llvm.lifetime.end.p0(i64 8, ptr nonnull %3) #21
  ret i32 %.0
}